; Function Attrs: mustprogress uwtable
define void @_ZNK6icu_7711MeasureUnit10withPrefixENS_14UMeasurePrefixER10UErrorCode(ptr dead_on_unwind noalias writable sret(%"class.icu_77::MeasureUnit") align 8 %0, ptr noundef nonnull align 8 dereferenceable(19) %1, i32 noundef %2, ptr noundef nonnull align 4 dereferenceable(4) %3) local_unnamed_addr #1 align 2 {
  %5 = alloca %"struct.icu_77::SingleUnitImpl", align 8
  call void @llvm.lifetime.start.p0(i64 12, ptr nonnull %5) #18
  %6 = tail call { i64, i32 } @_ZN6icu_7714SingleUnitImpl14forMeasureUnitERKNS_11MeasureUnitER10UErrorCode(ptr noundef nonnull align 8 dereferenceable(19) %1, ptr noundef nonnull align 4 dereferenceable(4) %3)
  %.fca.0.extract = extractvalue { i64, i32 } %6, 0
  %.fca.1.extract = extractvalue { i64, i32 } %6, 1
  store i64 %.fca.0.extract, ptr %5, align 8
  %.sroa.2.0..sroa_idx = getelementptr inbounds nuw i8, ptr %5, i64 8
  store i32 %.fca.1.extract, ptr %.sroa.2.0..sroa_idx, align 8
  %7 = getelementptr inbounds nuw i8, ptr %5, i64 4
  store i32 %2, ptr %7, align 4, !tbaa !85
  call void @_ZNK6icu_7714SingleUnitImpl5buildER10UErrorCode(ptr dead_on_unwind writable sret(%"class.icu_77::MeasureUnit") align 8 %0, ptr noundef nonnull align 4 dereferenceable(12) %5, ptr noundef nonnull align 4 dereferenceable(4) %3)
  call void @llvm.lifetime.end.p0(i64 12, ptr nonnull %5) #18
  ret void
}